; Function Attrs: nounwind uwtable
define ptr @H5F_fake_alloc(i8 noundef zeroext %0) local_unnamed_addr #0 {
  %2 = load i8, ptr @H5F_init_g, align 1, !tbaa !3, !range !7, !noundef !8
  %3 = trunc nuw i8 %2 to i1
  %4 = load i8, ptr @H5_libterm_g, align 1, !range !7
  %5 = trunc nuw i8 %4 to i1
  %6 = select i1 %3, i1 true, i1 %5
  br i1 %6, label %14, label %7, !prof !9

7:                                                ; preds = %1
  store i8 1, ptr @H5F_init_g, align 1, !tbaa !3
  %8 = tail call i32 @H5F__init_package() #2
  %9 = icmp slt i32 %8, 0
  br i1 %9, label %10, label %._crit_edge

._crit_edge:                                      ; preds = %7
  %.pre = load i8, ptr @H5F_init_g, align 1, !tbaa !3, !range !7
  %.pre21 = load i8, ptr @H5_libterm_g, align 1, !range !7
  %.pre22 = trunc nuw i8 %.pre to i1
  %.pre23 = trunc nuw i8 %.pre21 to i1
  br label %14

10:                                               ; preds = %7
  store i8 0, ptr @H5F_init_g, align 1, !tbaa !3
  %11 = load i64, ptr @H5E_FUNC_g, align 8, !tbaa !10
  %12 = load i64, ptr @H5E_CANTINIT_g, align 8, !tbaa !10
  %13 = tail call i32 (ptr, ptr, i32, i64, i64, ptr, ...) @H5E_printf_stack(ptr noundef nonnull @.str, ptr noundef nonnull @__func__.H5F_fake_alloc, i32 noundef 42, i64 noundef %11, i64 noundef %12, ptr noundef nonnull @.str.1) #2
  br label %H5F_fake_free.exit

14:                                               ; preds = %._crit_edge, %1
  %.pre-phi24 = phi i1 [ %.pre23, %._crit_edge ], [ %5, %1 ]
  %.pre-phi = phi i1 [ %.pre22, %._crit_edge ], [ %3, %1 ]
  %15 = xor i1 %.pre-phi24, true
  %16 = select i1 %.pre-phi, i1 true, i1 %15
  br i1 %16, label %17, label %H5F_fake_free.exit, !prof !9

17:                                               ; preds = %14
  %18 = tail call noalias ptr @H5FL_reg_calloc(ptr noundef nonnull @H5_H5F_t_reg_free_list) #2
  %19 = icmp eq ptr %18, null
  br i1 %19, label %20, label %24

20:                                               ; preds = %17
  %21 = load i64, ptr @H5E_FILE_g, align 8, !tbaa !10
  %22 = load i64, ptr @H5E_NOSPACE_g, align 8, !tbaa !10
  %23 = tail call i32 (ptr, ptr, i32, i64, i64, ptr, ...) @H5E_printf_stack(ptr noundef nonnull @.str, ptr noundef nonnull @__func__.H5F_fake_alloc, i32 noundef 46, i64 noundef %21, i64 noundef %22, ptr noundef nonnull @.str.2) #2
  br label %H5F_fake_free.exit

24:                                               ; preds = %17
  %25 = tail call noalias ptr @H5FL_reg_calloc(ptr noundef nonnull @H5_H5F_shared_t_reg_free_list) #2
  %26 = getelementptr inbounds nuw i8, ptr %18, i64 16
  store ptr %25, ptr %26, align 8, !tbaa !12
  %27 = icmp eq ptr %25, null
  br i1 %27, label %33, label %28

28:                                               ; preds = %24
  %29 = icmp eq i8 %0, 0
  %30 = getelementptr inbounds nuw i8, ptr %25, i64 65
  br i1 %29, label %31, label %32

31:                                               ; preds = %28
  store i8 8, ptr %30, align 1, !tbaa !21
  br label %H5F_fake_free.exit

32:                                               ; preds = %28
  store i8 %0, ptr %30, align 1, !tbaa !21
  br label %H5F_fake_free.exit

33:                                               ; preds = %24
  %34 = load i64, ptr @H5E_FILE_g, align 8, !tbaa !10
  %35 = load i64, ptr @H5E_NOSPACE_g, align 8, !tbaa !10
  %36 = tail call i32 (ptr, ptr, i32, i64, i64, ptr, ...) @H5E_printf_stack(ptr noundef nonnull @.str, ptr noundef nonnull @__func__.H5F_fake_alloc, i32 noundef 48, i64 noundef %34, i64 noundef %35, ptr noundef nonnull @.str.3) #2
  %37 = load i8, ptr @H5F_init_g, align 1, !tbaa !3, !range !7, !noundef !8
  %38 = trunc nuw i8 %37 to i1
  %39 = load i8, ptr @H5_libterm_g, align 1, !range !7
  %40 = trunc nuw i8 %39 to i1
  %41 = xor i1 %40, true
  %42 = select i1 %38, i1 true, i1 %41
  br i1 %42, label %43, label %H5F_fake_free.exit, !prof !41

43:                                               ; preds = %33
  %44 = tail call ptr @H5FL_reg_free(ptr noundef nonnull @H5_H5F_t_reg_free_list, ptr noundef nonnull %18) #2
  br label %H5F_fake_free.exit

H5F_fake_free.exit:                               ; preds = %10, %20, %43, %33, %32, %31, %14
  %.1 = phi ptr [ null, %14 ], [ %18, %32 ], [ %18, %31 ], [ null, %33 ], [ null, %43 ], [ null, %20 ], [ null, %10 ]
  ret ptr %.1
}